target datalayout = "e-m:e-p270:32:32-p271:32:32-p272:64:64-i64:64-i128:128-f80:128-n8:16:32:64-S128"
target triple = "x86_64-pc-linux-gnu"

@.str.34 = private unnamed_addr constant [15 x i8] c"unknown object\00", align 1
@.str.35 = private unnamed_addr constant [11 x i8] c"SDL_Window\00", align 1
@.str.36 = private unnamed_addr constant [13 x i8] c"SDL_Renderer\00", align 1
@.str.37 = private unnamed_addr constant [12 x i8] c"SDL_Texture\00", align 1
@.str.38 = private unnamed_addr constant [13 x i8] c"SDL_Joystick\00", align 1
@.str.39 = private unnamed_addr constant [12 x i8] c"SDL_Gamepad\00", align 1
@.str.40 = private unnamed_addr constant [11 x i8] c"SDL_Haptic\00", align 1
@.str.41 = private unnamed_addr constant [11 x i8] c"SDL_Sensor\00", align 1
@.str.42 = private unnamed_addr constant [14 x i8] c"hidapi device\00", align 1
@.str.43 = private unnamed_addr constant [16 x i8] c"hidapi joystick\00", align 1
@.str.44 = private unnamed_addr constant [7 x i8] c"thread\00", align 1
@.str.45 = private unnamed_addr constant [9 x i8] c"SDL_Tray\00", align 1
@.str.46 = private unnamed_addr constant [15 x i8] c"Leaked %s (%p)\00", align 1

; Function Attrs: nounwind uwtable
define internal zeroext i1 @LogOneLeakedObject(ptr noundef %0, ptr noundef %1, ptr noundef %2, ptr noundef %3) #0 {
  %5 = alloca ptr, align 8
  %6 = alloca ptr, align 8
  %7 = alloca ptr, align 8
  %8 = alloca ptr, align 8
  %9 = alloca ptr, align 8
  store ptr %0, ptr %5, align 8
  store ptr %1, ptr %6, align 8
  store ptr %2, ptr %7, align 8
  store ptr %3, ptr %8, align 8
  call void @llvm.lifetime.start.p0(i64 8, ptr %9) #6
  store ptr @.str.34, ptr %9, align 8
  %10 = load ptr, ptr %8, align 8
  %11 = ptrtoint ptr %10 to i64
  %12 = trunc i64 %11 to i32
  switch i32 %12, label %24 [
    i32 1, label %13
    i32 2, label %14
    i32 3, label %15
    i32 4, label %16
    i32 5, label %17
    i32 6, label %18
    i32 7, label %19
    i32 8, label %20
    i32 9, label %21
    i32 10, label %22
    i32 11, label %23
  ]

13:                                               ; preds = %4
  store ptr @.str.35, ptr %9, align 8
  br label %25

14:                                               ; preds = %4
  store ptr @.str.36, ptr %9, align 8
  br label %25

15:                                               ; preds = %4
  store ptr @.str.37, ptr %9, align 8
  br label %25

16:                                               ; preds = %4
  store ptr @.str.38, ptr %9, align 8
  br label %25

17:                                               ; preds = %4
  store ptr @.str.39, ptr %9, align 8
  br label %25

18:                                               ; preds = %4
  store ptr @.str.40, ptr %9, align 8
  br label %25

19:                                               ; preds = %4
  store ptr @.str.41, ptr %9, align 8
  br label %25

20:                                               ; preds = %4
  store ptr @.str.42, ptr %9, align 8
  br label %25

21:                                               ; preds = %4
  store ptr @.str.43, ptr %9, align 8
  br label %25

22:                                               ; preds = %4
  store ptr @.str.44, ptr %9, align 8
  br label %25

23:                                               ; preds = %4
  store ptr @.str.45, ptr %9, align 8
  br label %25

24:                                               ; preds = %4
  br label %25

25:                                               ; preds = %24, %23, %22, %21, %20, %19, %18, %17, %16, %15, %14, %13
  %26 = load ptr, ptr %9, align 8
  %27 = load ptr, ptr %7, align 8
  call void (ptr, ...) @SDL_Log_REAL(ptr noundef @.str.46, ptr noundef %26, ptr noundef %27)
  call void @llvm.lifetime.end.p0(i64 8, ptr %9) #6
  ret i1 true
}