; Function Attrs: nounwind uwtable
define internal noundef zeroext i1 @LogOneLeakedObject(ptr readnone captures(none) %0, ptr readnone captures(none) %1, ptr noundef %2, ptr noundef %3) #4 {
  %5 = ptrtoint ptr %3 to i64
  %6 = trunc i64 %5 to i32
  %switch.tableidx = add i32 %6, -1
  %7 = icmp ult i32 %switch.tableidx, 11
  br i1 %7, label %switch.lookup, label %9

switch.lookup:                                    ; preds = %4
  %8 = zext nneg i32 %switch.tableidx to i64
  %switch.gep = getelementptr inbounds nuw [11 x ptr], ptr @switch.table.LogOneLeakedObject, i64 0, i64 %8
  %switch.load = load ptr, ptr %switch.gep, align 8
  br label %9

9:                                                ; preds = %switch.lookup, %4
  %.0 = phi ptr [ @.str.34, %4 ], [ %switch.load, %switch.lookup ]
  tail call void (ptr, ...) @SDL_Log_REAL(ptr noundef nonnull @.str.46, ptr noundef nonnull %.0, ptr noundef %2) #10
  ret i1 true
}